; Function Attrs: mustprogress uwtable
define hidden void @_ZN2cv3ccm3Lab7fromxyzERNS_3VecIdLi3EEE(ptr dead_on_unwind noalias writable writeonly sret(%"class.cv::Vec.45") align 8 captures(none) initializes((0, 24)) %0, ptr noundef nonnull align 8 dereferenceable(200) %1, ptr noundef nonnull readonly align 8 captures(none) dereferenceable(24) %2) local_unnamed_addr #3 align 2 {
  %4 = getelementptr inbounds nuw i8, ptr %1, i64 8
  %5 = tail call fastcc noundef nonnull align 8 dereferenceable(24) ptr @_ZN2cv3ccmL14getIlluminantsERKNS0_2IOE(ptr noundef nonnull align 8 dereferenceable(72) %4)
  %6 = load double, ptr %2, align 8, !tbaa !84
  %7 = load ptr, ptr %5, align 8, !tbaa !54
  %8 = load double, ptr %7, align 8, !tbaa !84
  %9 = fdiv double %6, %8
  %10 = getelementptr inbounds nuw i8, ptr %2, i64 8
  %11 = load double, ptr %10, align 8, !tbaa !84
  %12 = getelementptr inbounds nuw i8, ptr %7, i64 8
  %13 = load double, ptr %12, align 8, !tbaa !84
  %14 = fdiv double %11, %13
  %15 = getelementptr inbounds nuw i8, ptr %2, i64 16
  %16 = load double, ptr %15, align 8, !tbaa !84
  %17 = getelementptr inbounds nuw i8, ptr %7, i64 16
  %18 = load double, ptr %17, align 8, !tbaa !84
  %19 = fdiv double %16, %18
  %20 = fcmp ogt double %9, 0x3F822354D28F7CD6
  br i1 %20, label %21, label %23

21:                                               ; preds = %3
  %22 = tail call double @cbrt(double noundef %9) #38
  br label %"_ZZN2cv3ccm3Lab7fromxyzERNS_3VecIdLi3EEEENK3$_0clEd.exit"

23:                                               ; preds = %3
  %24 = tail call double @llvm.fmuladd.f64(double %9, double 0x401F25ED097B425E, double 0x3FC1A7B9611A7B96)
  br label %"_ZZN2cv3ccm3Lab7fromxyzERNS_3VecIdLi3EEEENK3$_0clEd.exit"

"_ZZN2cv3ccm3Lab7fromxyzERNS_3VecIdLi3EEEENK3$_0clEd.exit": ; preds = %21, %23
  %25 = phi double [ %22, %21 ], [ %24, %23 ]
  %26 = fcmp ogt double %14, 0x3F822354D28F7CD6
  br i1 %26, label %27, label %29

27:                                               ; preds = %"_ZZN2cv3ccm3Lab7fromxyzERNS_3VecIdLi3EEEENK3$_0clEd.exit"
  %28 = tail call double @cbrt(double noundef %14) #38
  br label %"_ZZN2cv3ccm3Lab7fromxyzERNS_3VecIdLi3EEEENK3$_0clEd.exit15"

29:                                               ; preds = %"_ZZN2cv3ccm3Lab7fromxyzERNS_3VecIdLi3EEEENK3$_0clEd.exit"
  %30 = tail call double @llvm.fmuladd.f64(double %14, double 0x401F25ED097B425E, double 0x3FC1A7B9611A7B96)
  br label %"_ZZN2cv3ccm3Lab7fromxyzERNS_3VecIdLi3EEEENK3$_0clEd.exit15"

"_ZZN2cv3ccm3Lab7fromxyzERNS_3VecIdLi3EEEENK3$_0clEd.exit15": ; preds = %27, %29
  %31 = phi double [ %28, %27 ], [ %30, %29 ]
  %32 = fcmp ogt double %19, 0x3F822354D28F7CD6
  br i1 %32, label %33, label %35

33:                                               ; preds = %"_ZZN2cv3ccm3Lab7fromxyzERNS_3VecIdLi3EEEENK3$_0clEd.exit15"
  %34 = tail call double @cbrt(double noundef %19) #38
  br label %"_ZZN2cv3ccm3Lab7fromxyzERNS_3VecIdLi3EEEENK3$_0clEd.exit16"

35:                                               ; preds = %"_ZZN2cv3ccm3Lab7fromxyzERNS_3VecIdLi3EEEENK3$_0clEd.exit15"
  %36 = tail call double @llvm.fmuladd.f64(double %19, double 0x401F25ED097B425E, double 0x3FC1A7B9611A7B96)
  br label %"_ZZN2cv3ccm3Lab7fromxyzERNS_3VecIdLi3EEEENK3$_0clEd.exit16"

"_ZZN2cv3ccm3Lab7fromxyzERNS_3VecIdLi3EEEENK3$_0clEd.exit16": ; preds = %33, %35
  %37 = phi double [ %34, %33 ], [ %36, %35 ]
  %38 = tail call double @llvm.fmuladd.f64(double %31, double 1.160000e+02, double -1.600000e+01)
  %39 = fsub double %25, %31
  %40 = fmul double %39, 5.000000e+02
  %41 = fsub double %31, %37
  %42 = fmul double %41, 2.000000e+02
  store double %38, ptr %0, align 8, !tbaa !84
  %.sroa.4.0..sroa_idx = getelementptr inbounds nuw i8, ptr %0, i64 8
  store double %40, ptr %.sroa.4.0..sroa_idx, align 8, !tbaa !84
  %.sroa.5.0..sroa_idx = getelementptr inbounds nuw i8, ptr %0, i64 16
  store double %42, ptr %.sroa.5.0..sroa_idx, align 8, !tbaa !84
  ret void
}